target datalayout = "e-m:e-p270:32:32-p271:32:32-p272:64:64-i64:64-i128:128-f80:128-n8:16:32:64-S128"
target triple = "x86_64-pc-linux-gnu"

%struct.lv_area_t = type { i32, i32, i32, i32 }
%struct.lv_color_t = type { i8, i8, i8 }
%struct._lv_draw_task_t = type { ptr, i32, %struct.lv_area_t, %struct.lv_area_t, %struct.lv_area_t, %struct.lv_area_t, i32, ptr, i8, i8 }
%struct.lv_draw_dsc_base_t = type { ptr, i32, i32, i32, ptr, i64, ptr }
%struct.lv_draw_fill_dsc_t = type { %struct.lv_draw_dsc_base_t, i32, i8, %struct.lv_color_t, %struct.lv_grad_dsc_t }
%struct.lv_grad_dsc_t = type { [2 x %struct.lv_gradient_stop_t], i8, i8 }
%struct.lv_gradient_stop_t = type { %struct.lv_color_t, i8, i8 }
%struct.lv_draw_border_dsc_t = type { %struct.lv_draw_dsc_base_t, i32, %struct.lv_color_t, i32, i8, i8 }

; Function Attrs: nounwind uwtable
define internal void @draw_task_added_event_cb(ptr noundef %0) #0 {
  %2 = alloca ptr, align 8
  %3 = alloca ptr, align 8
  %4 = alloca ptr, align 8
  %5 = alloca i32, align 4
  %6 = alloca ptr, align 8
  %7 = alloca ptr, align 8
  %8 = alloca i32, align 4
  %9 = alloca %struct.lv_color_t, align 1
  %10 = alloca %struct.lv_color_t, align 1
  %11 = alloca %struct.lv_color_t, align 1
  store ptr %0, ptr %2, align 8, !tbaa !3
  call void @llvm.lifetime.start.p0(i64 8, ptr %3) #5
  %12 = load ptr, ptr %2, align 8, !tbaa !3
  %13 = call ptr @lv_event_get_current_target(ptr noundef %12)
  store ptr %13, ptr %3, align 8, !tbaa !3
  call void @llvm.lifetime.start.p0(i64 8, ptr %4) #5
  %14 = load ptr, ptr %2, align 8, !tbaa !3
  %15 = call ptr @lv_event_get_param(ptr noundef %14)
  store ptr %15, ptr %4, align 8, !tbaa !3
  %16 = load ptr, ptr %4, align 8, !tbaa !3
  %17 = getelementptr inbounds nuw %struct._lv_draw_task_t, ptr %16, i32 0, i32 7
  %18 = load ptr, ptr %17, align 8, !tbaa !39
  %19 = getelementptr inbounds nuw %struct.lv_draw_dsc_base_t, ptr %18, i32 0, i32 1
  %20 = load i32, ptr %19, align 8, !tbaa !41
  %21 = icmp ne i32 %20, 327680
  br i1 %21, label %22, label %23

22:                                               ; preds = %1
  store i32 1, ptr %5, align 4
  br label %141

23:                                               ; preds = %1
  call void @llvm.lifetime.start.p0(i64 8, ptr %6) #5
  %24 = load ptr, ptr %4, align 8, !tbaa !3
  %25 = call ptr @lv_draw_task_get_fill_dsc(ptr noundef %24)
  store ptr %25, ptr %6, align 8, !tbaa !3
  call void @llvm.lifetime.start.p0(i64 8, ptr %7) #5
  %26 = load ptr, ptr %4, align 8, !tbaa !3
  %27 = call ptr @lv_draw_task_get_border_dsc(ptr noundef %26)
  store ptr %27, ptr %7, align 8, !tbaa !3
  %28 = load ptr, ptr %6, align 8, !tbaa !3
  %29 = icmp ne ptr %28, null
  br i1 %29, label %34, label %30

30:                                               ; preds = %23
  %31 = load ptr, ptr %7, align 8, !tbaa !3
  %32 = icmp ne ptr %31, null
  br i1 %32, label %34, label %33

33:                                               ; preds = %30
  store i32 1, ptr %5, align 4
  br label %140

34:                                               ; preds = %30, %23
  call void @llvm.lifetime.start.p0(i64 4, ptr %8) #5
  %35 = load ptr, ptr %4, align 8, !tbaa !3
  %36 = getelementptr inbounds nuw %struct._lv_draw_task_t, ptr %35, i32 0, i32 7
  %37 = load ptr, ptr %36, align 8, !tbaa !39
  %38 = getelementptr inbounds nuw %struct.lv_draw_dsc_base_t, ptr %37, i32 0, i32 2
  %39 = load i32, ptr %38, align 4, !tbaa !43
  store i32 %39, ptr %8, align 4, !tbaa !27
  %40 = load i32, ptr %8, align 4, !tbaa !27
  %41 = icmp slt i32 %40, 7
  br i1 %41, label %42, label %55

42:                                               ; preds = %34
  %43 = load ptr, ptr %6, align 8, !tbaa !3
  %44 = icmp ne ptr %43, null
  br i1 %44, label %45, label %48

45:                                               ; preds = %42
  %46 = load ptr, ptr %6, align 8, !tbaa !3
  %47 = getelementptr inbounds nuw %struct.lv_draw_fill_dsc_t, ptr %46, i32 0, i32 2
  store i8 0, ptr %47, align 4, !tbaa !44
  br label %48

48:                                               ; preds = %45, %42
  %49 = load ptr, ptr %7, align 8, !tbaa !3
  %50 = icmp ne ptr %49, null
  br i1 %50, label %51, label %54

51:                                               ; preds = %48
  %52 = load ptr, ptr %7, align 8, !tbaa !3
  %53 = getelementptr inbounds nuw %struct.lv_draw_border_dsc_t, ptr %52, i32 0, i32 4
  store i8 0, ptr %53, align 4, !tbaa !48
  br label %54

54:                                               ; preds = %51, %48
  br label %73

55:                                               ; preds = %34
  %56 = load ptr, ptr %3, align 8, !tbaa !3
  %57 = load i32, ptr %8, align 4, !tbaa !27
  %58 = call zeroext i1 @lv_buttonmatrix_has_button_ctrl(ptr noundef %56, i32 noundef %57, i32 noundef 64)
  br i1 %58, label %59, label %72

59:                                               ; preds = %55
  %60 = load ptr, ptr %6, align 8, !tbaa !3
  %61 = icmp ne ptr %60, null
  br i1 %61, label %62, label %65

62:                                               ; preds = %59
  %63 = load ptr, ptr %6, align 8, !tbaa !3
  %64 = getelementptr inbounds nuw %struct.lv_draw_fill_dsc_t, ptr %63, i32 0, i32 2
  store i8 0, ptr %64, align 4, !tbaa !44
  br label %65

65:                                               ; preds = %62, %59
  %66 = load ptr, ptr %7, align 8, !tbaa !3
  %67 = icmp ne ptr %66, null
  br i1 %67, label %68, label %71

68:                                               ; preds = %65
  %69 = load ptr, ptr %7, align 8, !tbaa !3
  %70 = getelementptr inbounds nuw %struct.lv_draw_border_dsc_t, ptr %69, i32 0, i32 4
  store i8 0, ptr %70, align 4, !tbaa !48
  br label %71

71:                                               ; preds = %68, %65
  br label %72

72:                                               ; preds = %71, %55
  br label %73

73:                                               ; preds = %72, %54
  %74 = load ptr, ptr %3, align 8, !tbaa !3
  %75 = load i32, ptr %8, align 4, !tbaa !27
  %76 = call zeroext i1 @lv_buttonmatrix_has_button_ctrl(ptr noundef %74, i32 noundef %75, i32 noundef 32768)
  br i1 %76, label %77, label %112

77:                                               ; preds = %73
  %78 = load ptr, ptr %7, align 8, !tbaa !3
  %79 = icmp ne ptr %78, null
  br i1 %79, label %80, label %85

80:                                               ; preds = %77
  %81 = load ptr, ptr %7, align 8, !tbaa !3
  %82 = getelementptr inbounds nuw %struct.lv_draw_border_dsc_t, ptr %81, i32 0, i32 2
  call void @llvm.lifetime.start.p0(i64 3, ptr %9) #5
  %83 = load ptr, ptr %3, align 8, !tbaa !3
  %84 = call i24 @lv_theme_get_color_primary(ptr noundef %83)
  store i24 %84, ptr %9, align 1
  call void @llvm.memcpy.p0.p0.i64(ptr align 4 %82, ptr align 1 %9, i64 3, i1 false), !tbaa.struct !50
  call void @llvm.lifetime.end.p0(i64 3, ptr %9) #5
  br label %85

85:                                               ; preds = %80, %77
  %86 = load ptr, ptr %6, align 8, !tbaa !3
  %87 = icmp ne ptr %86, null
  br i1 %87, label %88, label %91

88:                                               ; preds = %85
  %89 = load ptr, ptr %6, align 8, !tbaa !3
  %90 = getelementptr inbounds nuw %struct.lv_draw_fill_dsc_t, ptr %89, i32 0, i32 2
  store i8 102, ptr %90, align 4, !tbaa !44
  br label %91

91:                                               ; preds = %88, %85
  %92 = load ptr, ptr %6, align 8, !tbaa !3
  %93 = icmp ne ptr %92, null
  br i1 %93, label %94, label %99

94:                                               ; preds = %91
  %95 = load ptr, ptr %6, align 8, !tbaa !3
  %96 = getelementptr inbounds nuw %struct.lv_draw_fill_dsc_t, ptr %95, i32 0, i32 3
  call void @llvm.lifetime.start.p0(i64 3, ptr %10) #5
  %97 = load ptr, ptr %3, align 8, !tbaa !3
  %98 = call i24 @lv_theme_get_color_primary(ptr noundef %97)
  store i24 %98, ptr %10, align 1
  call void @llvm.memcpy.p0.p0.i64(ptr align 1 %96, ptr align 1 %10, i64 3, i1 false), !tbaa.struct !50
  call void @llvm.lifetime.end.p0(i64 3, ptr %10) #5
  br label %99

99:                                               ; preds = %94, %91
  %100 = load ptr, ptr %3, align 8, !tbaa !3
  %101 = call i32 @lv_buttonmatrix_get_selected_button(ptr noundef %100)
  %102 = load i32, ptr %8, align 4, !tbaa !27
  %103 = icmp eq i32 %101, %102
  br i1 %103, label %104, label %111

104:                                              ; preds = %99
  %105 = load ptr, ptr %6, align 8, !tbaa !3
  %106 = icmp ne ptr %105, null
  br i1 %106, label %107, label %110

107:                                              ; preds = %104
  %108 = load ptr, ptr %6, align 8, !tbaa !3
  %109 = getelementptr inbounds nuw %struct.lv_draw_fill_dsc_t, ptr %108, i32 0, i32 2
  store i8 -78, ptr %109, align 4, !tbaa !44
  br label %110

110:                                              ; preds = %107, %104
  br label %111

111:                                              ; preds = %110, %99
  br label %112

112:                                              ; preds = %111, %73
  %113 = load ptr, ptr %3, align 8, !tbaa !3
  %114 = load i32, ptr %8, align 4, !tbaa !27
  %115 = call zeroext i1 @lv_buttonmatrix_has_button_ctrl(ptr noundef %113, i32 noundef %114, i32 noundef 16384)
  br i1 %115, label %116, label %139

116:                                              ; preds = %112
  %117 = load ptr, ptr %7, align 8, !tbaa !3
  %118 = icmp ne ptr %117, null
  br i1 %118, label %119, label %122

119:                                              ; preds = %116
  %120 = load ptr, ptr %7, align 8, !tbaa !3
  %121 = getelementptr inbounds nuw %struct.lv_draw_border_dsc_t, ptr %120, i32 0, i32 4
  store i8 -1, ptr %121, align 4, !tbaa !48
  br label %122

122:                                              ; preds = %119, %116
  %123 = load ptr, ptr %7, align 8, !tbaa !3
  %124 = icmp ne ptr %123, null
  br i1 %124, label %125, label %130

125:                                              ; preds = %122
  %126 = load ptr, ptr %7, align 8, !tbaa !3
  %127 = getelementptr inbounds nuw %struct.lv_draw_border_dsc_t, ptr %126, i32 0, i32 2
  call void @llvm.lifetime.start.p0(i64 3, ptr %11) #5
  %128 = load ptr, ptr %3, align 8, !tbaa !3
  %129 = call i24 @lv_theme_get_color_primary(ptr noundef %128)
  store i24 %129, ptr %11, align 1
  call void @llvm.memcpy.p0.p0.i64(ptr align 4 %127, ptr align 1 %11, i64 3, i1 false), !tbaa.struct !50
  call void @llvm.lifetime.end.p0(i64 3, ptr %11) #5
  br label %130

130:                                              ; preds = %125, %122
  %131 = load ptr, ptr %7, align 8, !tbaa !3
  %132 = icmp ne ptr %131, null
  br i1 %132, label %133, label %138

133:                                              ; preds = %130
  %134 = load ptr, ptr %7, align 8, !tbaa !3
  %135 = getelementptr inbounds nuw %struct.lv_draw_border_dsc_t, ptr %134, i32 0, i32 3
  %136 = load i32, ptr %135, align 8, !tbaa !51
  %137 = add nsw i32 %136, 1
  store i32 %137, ptr %135, align 8, !tbaa !51
  br label %138

138:                                              ; preds = %133, %130
  br label %139

139:                                              ; preds = %138, %112
  call void @llvm.lifetime.end.p0(i64 4, ptr %8) #5
  store i32 0, ptr %5, align 4
  br label %140

140:                                              ; preds = %139, %33
  call void @llvm.lifetime.end.p0(i64 8, ptr %7) #5
  call void @llvm.lifetime.end.p0(i64 8, ptr %6) #5
  br label %141

141:                                              ; preds = %140, %22
  call void @llvm.lifetime.end.p0(i64 8, ptr %4) #5
  call void @llvm.lifetime.end.p0(i64 8, ptr %3) #5
  %142 = load i32, ptr %5, align 4
  switch i32 %142, label %144 [
    i32 0, label %143
    i32 1, label %143
  ]

143:                                              ; preds = %141, %141
  ret void

144:                                              ; preds = %141
  unreachable
}