; Function Attrs: nounwind uwtable
define internal void @draw_task_added_event_cb(ptr noundef %0) #0 {
  %2 = tail call ptr @lv_event_get_current_target(ptr noundef %0) #5
  %3 = tail call ptr @lv_event_get_param(ptr noundef %0) #5
  %4 = getelementptr inbounds nuw i8, ptr %3, i64 80
  %5 = load ptr, ptr %4, align 8, !tbaa !37
  %6 = getelementptr inbounds nuw i8, ptr %5, i64 8
  %7 = load i32, ptr %6, align 8, !tbaa !39
  %.not = icmp eq i32 %7, 327680
  br i1 %.not, label %8, label %.critedge54

8:                                                ; preds = %1
  %9 = tail call ptr @lv_draw_task_get_fill_dsc(ptr noundef nonnull %3) #5
  %10 = tail call ptr @lv_draw_task_get_border_dsc(ptr noundef nonnull %3) #5
  %11 = icmp ne ptr %9, null
  %12 = icmp ne ptr %10, null
  %or.cond = select i1 %11, i1 true, i1 %12
  br i1 %or.cond, label %13, label %.critedge54

13:                                               ; preds = %8
  %14 = load ptr, ptr %4, align 8, !tbaa !37
  %15 = getelementptr inbounds nuw i8, ptr %14, i64 12
  %16 = load i32, ptr %15, align 4, !tbaa !41
  %17 = icmp slt i32 %16, 7
  br i1 %17, label %18, label %22

18:                                               ; preds = %13
  br i1 %11, label %19, label %21

19:                                               ; preds = %18
  %20 = getelementptr inbounds nuw i8, ptr %9, i64 52
  store i8 0, ptr %20, align 4, !tbaa !42
  br label %21

21:                                               ; preds = %19, %18
  br i1 %12, label %.sink.split, label %29

22:                                               ; preds = %13
  %23 = tail call zeroext i1 @lv_buttonmatrix_has_button_ctrl(ptr noundef %2, i32 noundef %16, i32 noundef 64) #5
  br i1 %23, label %24, label %29

24:                                               ; preds = %22
  br i1 %11, label %25, label %27

25:                                               ; preds = %24
  %26 = getelementptr inbounds nuw i8, ptr %9, i64 52
  store i8 0, ptr %26, align 4, !tbaa !42
  br label %27

27:                                               ; preds = %25, %24
  br i1 %12, label %.sink.split, label %29

.sink.split:                                      ; preds = %27, %21
  %28 = getelementptr inbounds nuw i8, ptr %10, i64 60
  store i8 0, ptr %28, align 4, !tbaa !46
  br label %29

29:                                               ; preds = %.sink.split, %22, %27, %21
  %30 = tail call zeroext i1 @lv_buttonmatrix_has_button_ctrl(ptr noundef %2, i32 noundef %16, i32 noundef 32768) #5
  br i1 %30, label %31, label %43

31:                                               ; preds = %29
  br i1 %12, label %32, label %35

32:                                               ; preds = %31
  %33 = getelementptr inbounds nuw i8, ptr %10, i64 52
  %34 = tail call i24 @lv_theme_get_color_primary(ptr noundef %2) #5
  store i24 %34, ptr %33, align 4
  br label %35

35:                                               ; preds = %32, %31
  br i1 %11, label %.critedge, label %.critedge.thread

.critedge.thread:                                 ; preds = %35
  %36 = tail call i32 @lv_buttonmatrix_get_selected_button(ptr noundef %2) #5
  br label %43

.critedge:                                        ; preds = %35
  %37 = getelementptr inbounds nuw i8, ptr %9, i64 52
  store i8 102, ptr %37, align 4, !tbaa !42
  %38 = getelementptr inbounds nuw i8, ptr %9, i64 53
  %39 = tail call i24 @lv_theme_get_color_primary(ptr noundef %2) #5
  store i24 %39, ptr %38, align 1
  %40 = tail call i32 @lv_buttonmatrix_get_selected_button(ptr noundef %2) #5
  %41 = icmp eq i32 %40, %16
  br i1 %41, label %42, label %43

42:                                               ; preds = %.critedge
  store i8 -78, ptr %37, align 4, !tbaa !42
  br label %43

43:                                               ; preds = %.critedge.thread, %.critedge, %42, %29
  %44 = tail call zeroext i1 @lv_buttonmatrix_has_button_ctrl(ptr noundef %2, i32 noundef %16, i32 noundef 16384) #5
  %45 = select i1 %44, i1 %12, i1 false
  br i1 %45, label %.critedge53, label %.critedge54

.critedge53:                                      ; preds = %43
  %46 = getelementptr inbounds nuw i8, ptr %10, i64 60
  store i8 -1, ptr %46, align 4, !tbaa !46
  %47 = getelementptr inbounds nuw i8, ptr %10, i64 52
  %48 = tail call i24 @lv_theme_get_color_primary(ptr noundef %2) #5
  store i24 %48, ptr %47, align 4
  %49 = getelementptr inbounds nuw i8, ptr %10, i64 56
  %50 = load i32, ptr %49, align 8, !tbaa !48
  %51 = add nsw i32 %50, 1
  store i32 %51, ptr %49, align 8, !tbaa !48
  br label %.critedge54

.critedge54:                                      ; preds = %43, %8, %.critedge53, %1
  ret void
}